; Function Attrs: mustprogress nofree norecurse nosync nounwind willreturn memory(write, argmem: readwrite, inaccessiblemem: none) uwtable
define hidden void @luaA_pushobject(ptr noundef captures(none) %0, ptr noundef readonly captures(none) %1) local_unnamed_addr #0 {
  %3 = getelementptr inbounds nuw i8, ptr %0, i64 16
  %4 = load ptr, ptr %3, align 8, !tbaa !4
  %5 = load i64, ptr %1, align 8, !tbaa !19
  store i64 %5, ptr %4, align 8, !tbaa !19
  %6 = getelementptr inbounds nuw i8, ptr %1, i64 8
  %7 = load i32, ptr %6, align 8, !tbaa !20
  %8 = getelementptr inbounds nuw i8, ptr %4, i64 8
  store i32 %7, ptr %8, align 8, !tbaa !20
  %9 = load ptr, ptr %3, align 8, !tbaa !4
  %10 = getelementptr inbounds nuw i8, ptr %9, i64 16
  store ptr %10, ptr %3, align 8, !tbaa !4
  ret void
}